; Function Attrs: mustprogress nofree norecurse nosync nounwind willreturn memory(write, argmem: readwrite, inaccessiblemem: none) uwtable
define hidden void @_ZN16PreserveJVMStateD2Ev(ptr nocapture noundef nonnull readonly align 8 dereferenceable(20) %0) unnamed_addr #4 align 2 {
  %2 = load ptr, ptr %0, align 8
  %3 = getelementptr inbounds i8, ptr %0, i64 8
  %4 = load ptr, ptr %3, align 8
  %5 = getelementptr inbounds i8, ptr %2, i64 40
  store ptr %4, ptr %5, align 8
  %6 = getelementptr inbounds i8, ptr %0, i64 16
  %7 = load i32, ptr %6, align 8
  %8 = getelementptr inbounds i8, ptr %2, i64 80
  store i32 %7, ptr %8, align 8
  ret void
}